; ModuleID = '39/396.c'
source_filename = "39/396.c"
target datalayout = "e-m:e-p270:32:32-p271:32:32-p272:64:64-i64:64-f80:128-n8:16:32:64-S128"
target triple = "x86_64-pc-linux-gnu"

%struct.student = type { [20 x i8], i32, i32, i8, i8, i32, i32 }

@.str = private unnamed_addr constant [3 x i8] c"%d\00", align 1
@.str.1 = private unnamed_addr constant [18 x i8] c"%s %d %d %c %c %d\00", align 1
@.str.2 = private unnamed_addr constant [9 x i8] c"%s\0A%d\0A%d\00", align 1

; Function Attrs: noinline nounwind uwtable
define dso_local i32 @yuan(i32 %0, i32 %1) #0 {
  %3 = alloca i32, align 4
  %4 = alloca i32, align 4
  %5 = alloca i32, align 4
  store i32 %0, i32* %3, align 4
  store i32 %1, i32* %4, align 4
  store i32 0, i32* %5, align 4
  %6 = load i32, i32* %3, align 4
  %7 = icmp sgt i32 %6, 80
  br i1 %7, label %8, label %12

8:                                                ; preds = %2
  %9 = load i32, i32* %4, align 4
  %10 = icmp sge i32 %9, 1
  br i1 %10, label %11, label %12

11:                                               ; preds = %8
  store i32 1, i32* %5, align 4
  br label %12

12:                                               ; preds = %11, %8, %2
  %13 = load i32, i32* %5, align 4
  ret i32 %13
}

; Function Attrs: noinline nounwind uwtable
define dso_local i32 @wusi(i32 %0, i32 %1) #0 {
  %3 = alloca i32, align 4
  %4 = alloca i32, align 4
  %5 = alloca i32, align 4
  store i32 %0, i32* %3, align 4
  store i32 %1, i32* %4, align 4
  store i32 0, i32* %5, align 4
  %6 = load i32, i32* %3, align 4
  %7 = icmp sgt i32 %6, 85
  br i1 %7, label %8, label %12

8:                                                ; preds = %2
  %9 = load i32, i32* %4, align 4
  %10 = icmp sgt i32 %9, 80
  br i1 %10, label %11, label %12

11:                                               ; preds = %8
  store i32 1, i32* %5, align 4
  br label %12

12:                                               ; preds = %11, %8, %2
  %13 = load i32, i32* %5, align 4
  ret i32 %13
}

; Function Attrs: noinline nounwind uwtable
define dso_local i32 @youxiu(i32 %0) #0 {
  %2 = alloca i32, align 4
  %3 = alloca i32, align 4
  store i32 %0, i32* %2, align 4
  store i32 0, i32* %3, align 4
  %4 = load i32, i32* %2, align 4
  %5 = icmp sgt i32 %4, 90
  br i1 %5, label %6, label %7

6:                                                ; preds = %1
  store i32 1, i32* %3, align 4
  br label %7

7:                                                ; preds = %6, %1
  %8 = load i32, i32* %3, align 4
  ret i32 %8
}

; Function Attrs: noinline nounwind uwtable
define dso_local i32 @xibu(i32 %0, i8 signext %1) #0 {
  %3 = alloca i32, align 4
  %4 = alloca i8, align 1
  %5 = alloca i32, align 4
  store i32 %0, i32* %3, align 4
  store i8 %1, i8* %4, align 1
  store i32 0, i32* %5, align 4
  %6 = load i32, i32* %3, align 4
  %7 = icmp sgt i32 %6, 85
  br i1 %7, label %8, label %13

8:                                                ; preds = %2
  %9 = load i8, i8* %4, align 1
  %10 = sext i8 %9 to i32
  %11 = icmp eq i32 %10, 89
  br i1 %11, label %12, label %13

12:                                               ; preds = %8
  store i32 1, i32* %5, align 4
  br label %13

13:                                               ; preds = %12, %8, %2
  %14 = load i32, i32* %5, align 4
  ret i32 %14
}

; Function Attrs: noinline nounwind uwtable
define dso_local i32 @banji(i32 %0, i8 signext %1) #0 {
  %3 = alloca i32, align 4
  %4 = alloca i8, align 1
  %5 = alloca i32, align 4
  store i32 %0, i32* %3, align 4
  store i8 %1, i8* %4, align 1
  store i32 0, i32* %5, align 4
  %6 = load i32, i32* %3, align 4
  %7 = icmp sgt i32 %6, 80
  br i1 %7, label %8, label %13

8:                                                ; preds = %2
  %9 = load i8, i8* %4, align 1
  %10 = sext i8 %9 to i32
  %11 = icmp eq i32 %10, 89
  br i1 %11, label %12, label %13

12:                                               ; preds = %8
  store i32 1, i32* %5, align 4
  br label %13

13:                                               ; preds = %12, %8, %2
  %14 = load i32, i32* %5, align 4
  ret i32 %14
}

; Function Attrs: noinline nounwind uwtable
define dso_local void @main() #0 {
  %1 = alloca %struct.student*, align 8
  %2 = alloca i32, align 4
  %3 = alloca i32, align 4
  %4 = alloca i32, align 4
  %5 = alloca i32, align 4
  %6 = alloca i32, align 4
  %7 = alloca i32, align 4
  %8 = alloca i32, align 4
  %9 = alloca i32, align 4
  store i32 0, i32* %9, align 4
  %10 = call i32 (i8*, ...) @__isoc99_scanf(i8* getelementptr inbounds ([3 x i8], [3 x i8]* @.str, i64 0, i64 0), i32* %3)
  %11 = load i32, i32* %3, align 4
  %12 = sext i32 %11 to i64
  %13 = mul i64 %12, 40
  %14 = call noalias i8* @malloc(i64 %13) #4
  %15 = bitcast i8* %14 to %struct.student*
  store %struct.student* %15, %struct.student** %1, align 8
  store i32 0, i32* %2, align 4
  br label %16

16:                                               ; preds = %143, %0
  %17 = load i32, i32* %2, align 4
  %18 = load i32, i32* %3, align 4
  %19 = icmp slt i32 %17, %18
  br i1 %19, label %20, label %146

20:                                               ; preds = %16
  %21 = load %struct.student*, %struct.student** %1, align 8
  %22 = load i32, i32* %2, align 4
  %23 = sext i32 %22 to i64
  %24 = getelementptr inbounds %struct.student, %struct.student* %21, i64 %23
  %25 = getelementptr inbounds %struct.student, %struct.student* %24, i32 0, i32 0
  %26 = load %struct.student*, %struct.student** %1, align 8
  %27 = load i32, i32* %2, align 4
  %28 = sext i32 %27 to i64
  %29 = getelementptr inbounds %struct.student, %struct.student* %26, i64 %28
  %30 = getelementptr inbounds %struct.student, %struct.student* %29, i32 0, i32 1
  %31 = load %struct.student*, %struct.student** %1, align 8
  %32 = load i32, i32* %2, align 4
  %33 = sext i32 %32 to i64
  %34 = getelementptr inbounds %struct.student, %struct.student* %31, i64 %33
  %35 = getelementptr inbounds %struct.student, %struct.student* %34, i32 0, i32 2
  %36 = load %struct.student*, %struct.student** %1, align 8
  %37 = load i32, i32* %2, align 4
  %38 = sext i32 %37 to i64
  %39 = getelementptr inbounds %struct.student, %struct.student* %36, i64 %38
  %40 = getelementptr inbounds %struct.student, %struct.student* %39, i32 0, i32 3
  %41 = load %struct.student*, %struct.student** %1, align 8
  %42 = load i32, i32* %2, align 4
  %43 = sext i32 %42 to i64
  %44 = getelementptr inbounds %struct.student, %struct.student* %41, i64 %43
  %45 = getelementptr inbounds %struct.student, %struct.student* %44, i32 0, i32 4
  %46 = load %struct.student*, %struct.student** %1, align 8
  %47 = load i32, i32* %2, align 4
  %48 = sext i32 %47 to i64
  %49 = getelementptr inbounds %struct.student, %struct.student* %46, i64 %48
  %50 = getelementptr inbounds %struct.student, %struct.student* %49, i32 0, i32 5
  %51 = call i32 (i8*, ...) @__isoc99_scanf(i8* getelementptr inbounds ([18 x i8], [18 x i8]* @.str.1, i64 0, i64 0), [20 x i8]* %25, i32* %30, i32* %35, i8* %40, i8* %45, i32* %50)
  %52 = load %struct.student*, %struct.student** %1, align 8
  %53 = load i32, i32* %2, align 4
  %54 = sext i32 %53 to i64
  %55 = getelementptr inbounds %struct.student, %struct.student* %52, i64 %54
  %56 = getelementptr inbounds %struct.student, %struct.student* %55, i32 0, i32 6
  store i32 0, i32* %56, align 4
  %57 = load %struct.student*, %struct.student** %1, align 8
  %58 = load i32, i32* %2, align 4
  %59 = sext i32 %58 to i64
  %60 = getelementptr inbounds %struct.student, %struct.student* %57, i64 %59
  %61 = getelementptr inbounds %struct.student, %struct.student* %60, i32 0, i32 1
  %62 = load i32, i32* %61, align 4
  %63 = load %struct.student*, %struct.student** %1, align 8
  %64 = load i32, i32* %2, align 4
  %65 = sext i32 %64 to i64
  %66 = getelementptr inbounds %struct.student, %struct.student* %63, i64 %65
  %67 = getelementptr inbounds %struct.student, %struct.student* %66, i32 0, i32 5
  %68 = load i32, i32* %67, align 4
  %69 = call i32 @yuan(i32 %62, i32 %68)
  store i32 %69, i32* %4, align 4
  %70 = load %struct.student*, %struct.student** %1, align 8
  %71 = load i32, i32* %2, align 4
  %72 = sext i32 %71 to i64
  %73 = getelementptr inbounds %struct.student, %struct.student* %70, i64 %72
  %74 = getelementptr inbounds %struct.student, %struct.student* %73, i32 0, i32 1
  %75 = load i32, i32* %74, align 4
  %76 = load %struct.student*, %struct.student** %1, align 8
  %77 = load i32, i32* %2, align 4
  %78 = sext i32 %77 to i64
  %79 = getelementptr inbounds %struct.student, %struct.student* %76, i64 %78
  %80 = getelementptr inbounds %struct.student, %struct.student* %79, i32 0, i32 2
  %81 = load i32, i32* %80, align 4
  %82 = call i32 @wusi(i32 %75, i32 %81)
  store i32 %82, i32* %5, align 4
  %83 = load %struct.student*, %struct.student** %1, align 8
  %84 = load i32, i32* %2, align 4
  %85 = sext i32 %84 to i64
  %86 = getelementptr inbounds %struct.student, %struct.student* %83, i64 %85
  %87 = getelementptr inbounds %struct.student, %struct.student* %86, i32 0, i32 1
  %88 = load i32, i32* %87, align 4
  %89 = call i32 @youxiu(i32 %88)
  store i32 %89, i32* %6, align 4
  %90 = load %struct.student*, %struct.student** %1, align 8
  %91 = load i32, i32* %2, align 4
  %92 = sext i32 %91 to i64
  %93 = getelementptr inbounds %struct.student, %struct.student* %90, i64 %92
  %94 = getelementptr inbounds %struct.student, %struct.student* %93, i32 0, i32 1
  %95 = load i32, i32* %94, align 4
  %96 = load %struct.student*, %struct.student** %1, align 8
  %97 = load i32, i32* %2, align 4
  %98 = sext i32 %97 to i64
  %99 = getelementptr inbounds %struct.student, %struct.student* %96, i64 %98
  %100 = getelementptr inbounds %struct.student, %struct.student* %99, i32 0, i32 4
  %101 = load i8, i8* %100, align 1
  %102 = call i32 @xibu(i32 %95, i8 signext %101)
  store i32 %102, i32* %7, align 4
  %103 = load %struct.student*, %struct.student** %1, align 8
  %104 = load i32, i32* %2, align 4
  %105 = sext i32 %104 to i64
  %106 = getelementptr inbounds %struct.student, %struct.student* %103, i64 %105
  %107 = getelementptr inbounds %struct.student, %struct.student* %106, i32 0, i32 2
  %108 = load i32, i32* %107, align 4
  %109 = load %struct.student*, %struct.student** %1, align 8
  %110 = load i32, i32* %2, align 4
  %111 = sext i32 %110 to i64
  %112 = getelementptr inbounds %struct.student, %struct.student* %109, i64 %111
  %113 = getelementptr inbounds %struct.student, %struct.student* %112, i32 0, i32 3
  %114 = load i8, i8* %113, align 4
  %115 = call i32 @banji(i32 %108, i8 signext %114)
  store i32 %115, i32* %8, align 4
  %116 = load i32, i32* %4, align 4
  %117 = mul nsw i32 8000, %116
  %118 = load i32, i32* %5, align 4
  %119 = mul nsw i32 4000, %118
  %120 = add nsw i32 %117, %119
  %121 = load i32, i32* %6, align 4
  %122 = mul nsw i32 2000, %121
  %123 = add nsw i32 %120, %122
  %124 = load i32, i32* %7, align 4
  %125 = mul nsw i32 1000, %124
  %126 = add nsw i32 %123, %125
  %127 = load i32, i32* %8, align 4
  %128 = mul nsw i32 850, %127
  %129 = add nsw i32 %126, %128
  %130 = load %struct.student*, %struct.student** %1, align 8
  %131 = load i32, i32* %2, align 4
  %132 = sext i32 %131 to i64
  %133 = getelementptr inbounds %struct.student, %struct.student* %130, i64 %132
  %134 = getelementptr inbounds %struct.student, %struct.student* %133, i32 0, i32 6
  store i32 %129, i32* %134, align 4
  %135 = load i32, i32* %9, align 4
  %136 = load %struct.student*, %struct.student** %1, align 8
  %137 = load i32, i32* %2, align 4
  %138 = sext i32 %137 to i64
  %139 = getelementptr inbounds %struct.student, %struct.student* %136, i64 %138
  %140 = getelementptr inbounds %struct.student, %struct.student* %139, i32 0, i32 6
  %141 = load i32, i32* %140, align 4
  %142 = add nsw i32 %135, %141
  store i32 %142, i32* %9, align 4
  br label %143

143:                                              ; preds = %20
  %144 = load i32, i32* %2, align 4
  %145 = add nsw i32 %144, 1
  store i32 %145, i32* %2, align 4
  br label %16

146:                                              ; preds = %16
  store i32 1, i32* %2, align 4
  br label %147

147:                                              ; preds = %173, %146
  %148 = load i32, i32* %2, align 4
  %149 = load i32, i32* %3, align 4
  %150 = icmp slt i32 %148, %149
  br i1 %150, label %151, label %176

151:                                              ; preds = %147
  %152 = load %struct.student*, %struct.student** %1, align 8
  %153 = getelementptr inbounds %struct.student, %struct.student* %152, i64 0
  %154 = getelementptr inbounds %struct.student, %struct.student* %153, i32 0, i32 6
  %155 = load i32, i32* %154, align 4
  %156 = load %struct.student*, %struct.student** %1, align 8
  %157 = load i32, i32* %2, align 4
  %158 = sext i32 %157 to i64
  %159 = getelementptr inbounds %struct.student, %struct.student* %156, i64 %158
  %160 = getelementptr inbounds %struct.student, %struct.student* %159, i32 0, i32 6
  %161 = load i32, i32* %160, align 4
  %162 = icmp slt i32 %155, %161
  br i1 %162, label %163, label %172

163:                                              ; preds = %151
  %164 = load %struct.student*, %struct.student** %1, align 8
  %165 = getelementptr inbounds %struct.student, %struct.student* %164, i64 0
  %166 = load %struct.student*, %struct.student** %1, align 8
  %167 = load i32, i32* %2, align 4
  %168 = sext i32 %167 to i64
  %169 = getelementptr inbounds %struct.student, %struct.student* %166, i64 %168
  %170 = bitcast %struct.student* %165 to i8*
  %171 = bitcast %struct.student* %169 to i8*
  call void @llvm.memcpy.p0i8.p0i8.i64(i8* align 4 %170, i8* align 4 %171, i64 40, i1 false)
  br label %172

172:                                              ; preds = %163, %151
  br label %173

173:                                              ; preds = %172
  %174 = load i32, i32* %2, align 4
  %175 = add nsw i32 %174, 1
  store i32 %175, i32* %2, align 4
  br label %147

176:                                              ; preds = %147
  %177 = load %struct.student*, %struct.student** %1, align 8
  %178 = getelementptr inbounds %struct.student, %struct.student* %177, i64 0
  %179 = getelementptr inbounds %struct.student, %struct.student* %178, i32 0, i32 0
  %180 = getelementptr inbounds [20 x i8], [20 x i8]* %179, i64 0, i64 0
  %181 = load %struct.student*, %struct.student** %1, align 8
  %182 = getelementptr inbounds %struct.student, %struct.student* %181, i64 0
  %183 = getelementptr inbounds %struct.student, %struct.student* %182, i32 0, i32 6
  %184 = load i32, i32* %183, align 4
  %185 = load i32, i32* %9, align 4
  %186 = call i32 (i8*, ...) @printf(i8* getelementptr inbounds ([9 x i8], [9 x i8]* @.str.2, i64 0, i64 0), i8* %180, i32 %184, i32 %185)
  ret void
}

declare dso_local i32 @__isoc99_scanf(i8*, ...) #1

; Function Attrs: nounwind
declare dso_local noalias i8* @malloc(i64) #2

; Function Attrs: argmemonly nounwind willreturn
declare void @llvm.memcpy.p0i8.p0i8.i64(i8* noalias nocapture writeonly, i8* noalias nocapture readonly, i64, i1 immarg) #3

declare dso_local i32 @printf(i8*, ...) #1


!llvm.module.flags = !{!0}
!llvm.ident = !{!1}

!0 = !{i32 1, !"wchar_size", i32 4}
!1 = !{!"clang version 10.0.0-4ubuntu1 "}
